(dp0
I0
S'All Pucks'
p1
sI1
S'4DOF Torques'
p2
sI2
S'Wrist Torques'
p3
sI3
S'Position Feedback'
p4
sI4
S'Whole WAM'
p5
sI5
S'Whole BHand'
p6
sI6
S'Property Feedback'
p7
sI7
S'Secondary Encoder Feedback'
p8
sI8
S'Tactile Top10 Data'
p9
sI9
S'Tactile Full Data'
p10
sI10
S'Force Torque Sensor: Force Data'
p11
sI11
S'Force Torque Sensor: Torque Data'
p12
s.