(dp0
S'SAVE'
p1
(lp2
S'30'
p3
aS'Save command for CAN'
p4
aS'NONE'
p5
aS'-/W'
p6
aS'No'
p7
asS'FET1'
p8
(lp9
S'17'
p10
aS'Tensioner output: 0=Off'
p11
aS' 1=On'
p12
aS'0'
p13
aS'R/W'
p14
asS'FET0'
p15
(lp16
S'16'
p17
aS'Brake output: 0=Off'
p18
aS' 1=On'
p19
ag13
aS'R/W'
p20
asS'JP'
p21
(lp22
S'96'
p23
aS'Joint encoder position'
p24
aS'NONE'
p25
aS'R/W'
p26
aS'Yes'
p27
asS'IOFF2'
p28
(lp29
S'75'
p30
aS'Initialization offset'
p31
aS'NONE'
p32
aS'-/-'
p33
aS'No'
p34
asS'PIDX'
p35
(lp36
S'70'
p37
aS'Puck index for torque'
p38
aS'NONE'
p39
aS'R/W'
p40
aS'Yes'
p41
asS'TIE'
p42
(lp43
S'100'
p44
aS'Flag to tie inner and outer links'
p45
ag13
aS'R/W'
p46
aS'Yes'
p47
asS'ECMIN'
p48
(lp49
S'102'
p50
aS'Encoder correction min value'
p51
ag13
aS'R/W'
p52
aS'No'
p53
asS'ANA0'
p54
(lp55
S'18'
p56
aS'Analog input (pin 4:0-3V'
p57
aS' 3:Gnd)'
p58
aS'NONE'
p59
aS'R/-'
p60
asS'VBUS'
p61
(lp62
S'21'
p63
aS'Bus voltage (V)'
p64
aS'NONE'
p65
aS'R/-'
p66
aS'No'
p67
asS'ANA1'
p68
(lp69
S'19'
p70
aS'Analog input (pin 2:0-3V'
p71
aS' 3:Gnd)'
p72
aS'NONE'
p73
aS'R/-'
p74
asS'ECMAX'
p75
(lp76
S'101'
p77
aS'Encoder correction max value'
p78
ag13
aS'R/W'
p79
aS'No'
p80
asS'CTS2'
p81
(lp82
S'69'
p83
aS'32-Bit Counts per revolution'
p84
aS'NONE'
p85
aS'R/W'
p86
aS'No'
p87
asS'JIDX'
p88
(lp89
S'85'
p90
aS'Joint index'
p91
aS'NONE'
p92
aS'R/W'
p93
aS'Yes'
p94
asS'P'
p95
(lp96
S'48'
p97
aS'32-Bit Position. R=Act'
p98
aS' W=Cmd'
p99
aS'NONE'
p100
aS'R/W'
p101
asS'T'
p102
(lp103
S'42'
p104
aS'Torque command'
p105
ag13
aS'R/W'
p106
aS'No'
p107
asS'ADDR'
p108
(lp109
S'6'
p110
aS'Address to peek/poke'
p111
ag13
aS'R/W'
p112
aS'No'
p113
asS'OD'
p114
(lp115
S'64'
p116
aS'Odometer (tbd)'
p117
aS'NONE'
p118
aS'R/W'
p119
aS'Yes'
p120
asS'OT'
p121
(lp122
S'54'
p123
aS'32-Bit Open Target'
p124
ag13
aS'R/W'
p125
aS'Yes'
p126
asS'HALLH2'
p127
(lp128
S'89'
p129
aS'32-Bit Hall history bitfield'
p130
aS'NONE'
p131
aS'-/-'
p132
aS'No'
p133
asS'OTEMP'
p134
(lp135
S'11'
p136
aS'Over temperature alarm (tbd)'
p137
aS'82'
p138
aS'R/W'
p139
aS'No'
p140
asS'BAUD'
p141
(lp142
S'12'
p143
aS'Baud rate/100. 96=9600 bps'
p144
aS'9600'
p145
aS'R/W'
p146
aS'No'
p147
asS'STAT'
p148
(lp149
S'5'
p150
aS'Status: 0=Reset/Monitor'
p151
aS' 2=Ready/Main'
p152
aS'NONE'
p153
aS'R/W'
p154
asS'HALLH'
p155
(lp156
S'88'
p157
aS'32-Bit Hall history bitfield'
p158
ag13
aS'R/W'
p159
aS'No'
p160
asS'CMD'
p161
(lp162
S'29'
p163
aS'For commands w/o values: RESET'
p164
aS'HOME'
p165
aS'KEEP'
p166
aS'PASS'
p167
asS'POLES'
p168
(lp169
S'90'
p170
aS'Number of magnets on rotor'
p171
aS'12'
p172
aS'R/W'
p173
aS'Yes'
p174
asS'M2'
p175
(lp176
S'59'
p177
aS'32-Bit Move command for CAN'
p178
aS'NONE'
p179
aS'-/-'
p180
aS'No'
p181
asS'FIND'
p182
(lp183
S'33'
p184
aS'Find command for CAN'
p185
aS'NONE'
p186
aS'-/W'
p187
aS'No'
p188
asS'DEF'
p189
(lp190
S'32'
p191
aS'Default command for CAN'
p192
aS'NONE'
p193
aS'-/W'
p194
aS'No'
p195
asS'LSG'
p196
(lp197
S'72'
p198
aS'Low strain gage (tbd)'
p199
ag13
aS'R/W'
p200
aS'Yes'
p201
asS'LCTC'
p202
(lp203
S'104'
p204
aS'Loop control torque coefficient'
p205
aS'1'
p206
aS'R/W'
p207
aS'No'
p208
asS'TEMP'
p209
(lp210
S'9'
p211
aS'Temperature (puck internal)'
p212
aS'NONE'
p213
aS'R/-'
p214
aS'No'
p215
asS'DIG0'
p216
(lp217
S'14'
p218
aS'Dig I/O: -1=In'
p219
aS'0=Lo'
p220
aS'1=Hi'
p221
aS'2-100=%PWM (pin 41:0-3.3V'
p222
asS'DIG1'
p223
(lp224
S'15'
p225
aS'Dig I/O: -1=In'
p226
aS'0=Lo'
p227
aS'1=Hi (pin 43:0-3.3V'
p228
aS' 44:Gnd)'
p229
asS'EN2'
p230
(lp231
S'95'
p232
aS'Enable bitfield'
p233
aS'NONE'
p234
aS'-/-'
p235
aS'No'
p236
asS'PTEMP'
p237
(lp238
S'10'
p239
aS'Peak temperature recorded (tbd)'
p240
aS'NONE'
p241
aS'R/W'
p242
aS'Yes'
p243
asS'E2'
p244
(lp245
S'53'
p246
aS'32-Bit Endpoint'
p247
aS'NONE'
p248
aS'-/-'
p249
aS'No'
p250
asS'LOAD'
p251
(lp252
S'31'
p253
aS'Load command for CAN'
p254
aS'NONE'
p255
aS'-/W'
p256
aS'No'
p257
asS'EN'
p258
(lp259
S'94'
p260
aS'Enable bitfield'
p261
aS'NONE'
p262
aS'R/W'
p263
aS'No'
p264
asS'TACT'
p265
(lp266
S'106'
p267
aS'Tactile sensor array access (special)'
p268
ag13
aS'R/W'
p269
aS'No'
p270
asS'IKP'
p271
(lp272
S'91'
p273
aS'Current sense proportional gain'
p274
aS'8192'
p275
aS'R/W'
p276
aS'Yes'
p277
asS'ERROR'
p278
(lp279
S'4'
p280
aS'Error (tbd)'
p281
aS'NONE'
p282
aS'R/-'
p283
aS'No'
p284
asS'Property'
p285
(lp286
S'Key'
p287
aS'Description'
p288
aS'Default'
p289
aS'R/W'
p290
aS'Saved'
p291
asS'HSG'
p292
(lp293
S'71'
p294
aS'High strain gage (tbd)'
p295
aS'255'
p296
aS'R/W'
p297
aS'Yes'
p298
asS'MPE'
p299
(lp300
S'76'
p301
aS'Max position error (tbd)'
p302
ag150
aS'R/W'
p303
aS'Yes'
p304
asS'MOFST'
p305
(lp306
S'61'
p307
aS'Mechanical offset calibration'
p308
aS'NONE'
p309
aS'R/W'
p310
aS'Yes'
p311
asS'MOV'
p312
(lp313
S'47'
p314
aS'Max open velocity (cts/ms)'
p315
aS'1500'
p316
aS'R/W'
p317
aS'Yes'
p318
asS'MT'
p319
(lp320
S'43'
p321
aS'Max torque'
p322
aS'4700'
p323
aS'R/W'
p324
aS'Yes'
p325
asS'MV'
p326
(lp327
S'45'
p328
aS'Max velocity (cts/ms)'
p329
aS'1500'
p330
aS'R/W'
p331
aS'Yes'
p332
asS'LFLAGS'
p333
(lp334
S'103'
p335
aS'Loop feedback flags'
p336
ag13
aS'R/W'
p337
aS'No'
p338
asS'IHIT'
p339
(lp340
S'108'
p341
aS'Initialization torque'
p342
aS'1500'
p343
aS'R/W'
p344
aS'Yes'
p345
asS'MECH2'
p346
(lp347
S'67'
p348
aS'32-Bit Mechanical angle (cts)'
p349
aS'NONE'
p350
aS'-/-'
p351
aS'No'
p352
asS'IMOTOR'
p353
(lp354
S'22'
p355
aS'Motor current (2048+205/1A)'
p356
aS'NONE'
p357
aS'R/-'
p358
aS'No'
p359
asS'CTS'
p360
(lp361
S'68'
p362
aS'32-Bit Counts per revolution'
p363
aS'4096'
p364
aS'R/W'
p365
aS'Yes'
p366
asS'UPSECS'
p367
(lp368
S'63'
p369
aS'Up seconds in operation (tbd)'
p370
aS'NONE'
p371
aS'R/W'
p372
aS'Yes'
p373
asS'MECH'
p374
(lp375
S'66'
p376
aS'32-Bit Mechanical angle (cts)'
p377
aS'NONE'
p378
aS'R/-'
p379
aS'No'
p380
asS'LCVC'
p381
(lp382
S'105'
p383
aS'Loop control velocity coefficient'
p384
ag206
aS'R/W'
p385
aS'No'
p386
asS'TACTID'
p387
(lp388
S'107'
p389
aS'Tactile sensor array I2C ID'
p390
aS'NONE'
p391
aS'R/W'
p392
aS'Yes'
p393
asS'X2'
p394
(lp395
S'36'
p396
aS'Gimbals offset 3 (Q4.12 rad)'
p397
aS'NONE'
p398
aS'R/W'
p399
aS'Yes'
p400
asS'X3'
p401
(lp402
S'37'
p403
aS'Gimbals/safety gain 1 (Q4.12 rad/3V)'
p404
aS'NONE'
p405
aS'R/W'
p406
aS'Yes'
p407
asS'X0'
p408
(lp409
S'34'
p410
aS'Gimbals offset 1 (Q4.12 rad)'
p411
aS'NONE'
p412
aS'R/W'
p413
aS'Yes'
p414
asS'X1'
p415
(lp416
S'35'
p417
aS'Gimbals offset 2 (Q4.12 rad)'
p418
aS'NONE'
p419
aS'R/W'
p420
aS'Yes'
p421
asS'X6'
p422
(lp423
S'40'
p424
aS'tbd'
p425
aS'NONE'
p426
aS'R/W'
p427
aS'Yes'
p428
asS'X7'
p429
(lp430
S'41'
p431
aS'tbd'
p432
aS'NONE'
p433
aS'R/W'
p434
aS'Yes'
p435
asS'X4'
p436
(lp437
S'38'
p438
aS'Gimbals/safety gain 2 (Q4.12 rad/3V)'
p439
aS'NONE'
p440
aS'R/W'
p441
aS'Yes'
p442
asS'X5'
p443
(lp444
S'39'
p445
aS'Gimbals/safety gain 3 (Q4.12 rad/3V)'
p446
aS'NONE'
p447
aS'R/W'
p448
aS'Yes'
p449
asS'ILOGIC'
p450
(lp451
S'24'
p452
aS'Logic current (tbd)'
p453
aS'NONE'
p454
aS'R/-'
p455
aS'No'
p456
asS'IPNM'
p457
(lp458
S'86'
p459
aS'CommandedCurrent / Nm (ratio)'
p460
aS'2755'
p461
aS'R/W'
p462
aS'Yes'
p463
asS'LOCK'
p464
(lp465
S'13'
p466
aS'Lock'
p467
ag13
aS'-/W'
p468
aS'No'
p469
asS'V'
p470
(lp471
S'44'
p472
aS'Velocity (cts/ms). R=Act'
p473
aS' W=Cmd'
p474
ag13
aS'R/W'
p475
asS'IKI'
p476
(lp477
S'92'
p478
aS'Current sense integral gain'
p479
aS'3276'
p480
aS'R/W'
p481
aS'Yes'
p482
asS'CT'
p483
(lp484
S'56'
p485
aS'32-Bit Close Target'
p486
aS'30000'
p487
aS'R/W'
p488
aS'Yes'
p489
asS'CT2'
p490
(lp491
S'57'
p492
aS'32-Bit Close Target'
p493
aS'NONE'
p494
aS'-/-'
p495
aS'No'
p496
asS'KD'
p497
(lp498
S'80'
p499
aS'Differential gain'
p500
aS'8000'
p501
aS'R/W'
p502
aS'Yes'
p503
asS'KI'
p504
(lp505
S'81'
p506
aS'Integral gain'
p507
ag13
aS'R/W'
p508
aS'Yes'
p509
asS'IOFF'
p510
(lp511
S'74'
p512
aS'Initialization offset'
p513
aS'NONE'
p514
aS'R/W'
p515
aS'Yes'
p516
asS'IVEL'
p517
(lp518
S'73'
p519
aS'Initialization velocity (tbd)'
p520
aS'20'
p521
aS'R/W'
p522
aS'Yes'
p523
asS'KP'
p524
(lp525
S'79'
p526
aS'Proportional gain'
p527
aS'2000'
p528
aS'R/W'
p529
aS'Yes'
p530
asS'SN'
p531
(lp532
S'2'
p533
aS'Serial number'
p534
aS'NONE'
p535
aS'R/W'
p536
aS'Yes'
p537
asS'SG'
p538
(lp539
S'25'
p540
aS'Strain gage (tbd)'
p541
aS'NONE'
p542
aS'R/-'
p543
aS'No'
p544
asS'MDS'
p545
(lp546
S'65'
p547
aS'Max duty sum for power limiting (tbd)'
p548
aS'1650'
p549
aS'R/W'
p550
aS'Yes'
p551
asS'IKCOR'
p552
(lp553
S'93'
p554
aS'Current sense correction factor'
p555
aS'1638'
p556
aS'R/W'
p557
aS'Yes'
p558
asS'TSTOP'
p559
(lp560
S'78'
p561
aS'Time until considered stopped'
p562
aS'50'
p563
aS'R/W'
p564
aS'Yes'
p565
asS'OT2'
p566
(lp567
S'55'
p568
aS'32-Bit Open Target'
p569
aS'NONE'
p570
aS'-/-'
p571
aS'No'
p572
asS'JP2'
p573
(lp574
S'97'
p575
aS'Joint encoder position'
p576
aS'NONE'
p577
aS'-/-'
p578
aS'No'
p579
asS'DS'
p580
(lp581
S'60'
p582
aS'Default step'
p583
aS'25000'
p584
aS'R/W'
p585
aS'Yes'
p586
asS'DP'
p587
(lp588
S'50'
p589
aS'32-Bit Default Position'
p590
ag13
aS'R/W'
p591
aS'Yes'
p592
asS'P2'
p593
(lp594
S'49'
p595
aS'32-Bit Position. R=Act'
p596
aS' W=Cmd'
p597
aS'NONE'
p598
aS'-/-'
p599
asS'TENST'
p600
(lp601
S'83'
p602
aS'Tension total (tbd)'
p603
aS'NONE'
p604
aS'R/W'
p605
aS'Yes'
p606
asS'HALLS'
p607
(lp608
S'87'
p609
aS'Hall feedback bitfield: CBA'
p610
aS'NONE'
p611
aS'R/W'
p612
aS'No'
p613
asS'MODE'
p614
(lp615
S'8'
p616
aS'Mode: 0=Idle'
p617
aS' 2=Torque'
p618
aS' 3=PID'
p619
aS' 4=Vel'
p620
asS'TENSO'
p621
(lp622
S'84'
p623
aS'Tension offset (tbd)'
p624
aS'NONE'
p625
aS'R/W'
p626
aS'Yes'
p627
asS'VERS'
p628
(lp629
g13
aS'Firmware version'
p630
aS'NONE'
p631
aS'R/W'
p632
aS'No'
p633
asS'THERM'
p634
(lp635
S'20'
p636
aS'Thermistor (motor) temperature'
p637
aS'NONE'
p638
aS'R/-'
p639
aS'No'
p640
asS'E'
p641
(lp642
S'52'
p643
aS'32-Bit Endpoint'
p644
ag13
aS'R/W'
p645
aS'No'
p646
asS'GRPC'
p647
(lp648
S'28'
p649
aS'Comm group C'
p650
aS'NONE'
p651
aS'R/W'
p652
aS'Yes'
p653
asS'GRPB'
p654
(lp655
S'27'
p656
aS'Comm group B'
p657
aS'NONE'
p658
aS'R/W'
p659
aS'Yes'
p660
asS'GRPA'
p661
(lp662
S'26'
p663
aS'Comm group A'
p664
aS'NONE'
p665
aS'R/W'
p666
aS'Yes'
p667
asS'M'
p668
(lp669
S'58'
p670
aS'32-Bit Move command for CAN'
p671
aS'NONE'
p672
aS'-/W'
p673
aS'No'
p674
asS'VALUE'
p675
(lp676
S'7'
p677
aS'Value to poke/peek'
p678
aS'NONE'
p679
aS'R/W'
p680
aS'No'
p681
asS'VLOGIC'
p682
(lp683
S'23'
p684
aS'Logic voltage (tbd)'
p685
aS'NONE'
p686
aS'R/-'
p687
aS'No'
p688
asS'HOLD'
p689
(lp690
S'77'
p691
aS'Flag to hold position after move'
p692
ag13
aS'R/W'
p693
aS'Yes'
p694
asS'ID'
p695
(lp696
S'3'
p697
aS'CANbus ID'
p698
aS'NONE'
p699
aS'R/W'
p700
aS'Yes'
p701
asS'JOFST2'
p702
(lp703
S'99'
p704
aS'Joint encoder calibration offset'
p705
aS'NONE'
p706
aS'-/-'
p707
aS'No'
p708
asS'DP2'
p709
(lp710
S'51'
p711
aS'32-Bit Default Position'
p712
aS'NONE'
p713
aS'-/-'
p714
aS'No'
p715
asS'IOFST'
p716
(lp717
S'62'
p718
aS'Current offset calibration'
p719
aS'NONE'
p720
aS'R/W'
p721
aS'Yes'
p722
asS'ACCEL'
p723
(lp724
S'82'
p725
aS'Acceleration (Q8.8 cts/ms/ms)'
p726
aS'2048'
p727
aS'R/W'
p728
aS'Yes'
p729
asS'ROLE'
p730
(lp731
g206
aS'P=PRODUCT'
p732
aS' R=ROLE: XXXX PPPP XXXX RRRR'
p733
aS'NONE'
p734
aS'R/W'
p735
asS'JOFST'
p736
(lp737
S'98'
p738
aS'Joint encoder calibration offset'
p739
ag13
aS'R/W'
p740
aS'Yes'
p741
asS'MCV'
p742
(lp743
S'46'
p744
aS'Max close velocity (cts/ms)'
p745
aS'1500'
p746
aS'R/W'
p747
aS'Yes'
p748
as.