(dp0
S'cmdTC'
p1
(lp2
S'16'
p3
aS'Torque Close (closes with MT'
p4
asS'cmdKeep'
p5
(lp6
S'8'
p7
aS'Keep and process received serial characters (default state)'
p8
asS'cmdVers'
p9
(lp10
S'11'
p11
aS'Used internally. Use GET VERS(0) instead.'
p12
asS'cmdTO'
p13
(lp14
S'17'
p15
aS'Torque Open (opens with MT'
p16
asS'cmdMove'
p17
(lp18
S'19'
p19
aS'Move to encoder position specified by Default Position (DP)'
p20
asS'cmdDef'
p21
(lp22
S'3'
p23
aS'Set a property to its default. Deprecated. Use btutil'
p24
asS'cmdIO'
p25
(lp26
S'15'
p27
aS'Incremental Open (moves motor by \xe2\x80\x93Default Step DS encoder counts)'
p28
asS'cmdHI'
p29
(lp30
S'13'
p31
aS'Perform Hand-Initialization routine for this motor'
p32
asS'cmdHelp'
p33
(lp34
S'22'
p35
aS'Not yet implemented'
p36
asS'cmdReset'
p37
(lp38
S'2'
p39
aS'Reset the puck firmware (soft reboot)'
p40
asS'cmdClose'
p41
(lp42
S'18'
p43
aS'Close'
p44
asS'cmdLoad'
p45
(lp46
S'0'
p47
aS'Load a property from EEPROM (if value = -1'
p48
asS'cmdHome'
p49
(lp50
S'7'
p51
aS'Go to the home position (zero)'
p52
asS'cmdIC'
p53
(lp54
S'14'
p55
aS'Incremental Close (moves motor by +Default Step DS encoder counts)'
p56
asS'cmdTestEE'
p57
(lp58
S'24'
p59
aS'Test the EEPROM with alternating bit-patterns. Sets ERROR.'
p60
asS'cmdTerm'
p61
(lp62
S'21'
p63
aS'Terminate motor power. Equivalent to SET MODE 0.'
p64
asS'cmdPass'
p65
(lp66
S'10'
p67
aS'Pass serial characters through to secondary serial port (for testing)'
p68
asS'cmdSet'
p69
(lp70
S'6'
p71
aS'Used internally. Do not use.'
p72
asS'cmdPPSInit'
p73
(lp74
S'23'
p75
aS'Used internally. Do not use.'
p76
asS'cmdSave'
p77
(lp78
S'1'
p79
aS'Save a property to EEPROM (if value = -1'
p80
asS'cmdFind'
p81
(lp82
S'5'
p83
aS'Used internally. Use SET FIND(33) MOFST(61) instead'
p84
asS'cmdOpen'
p85
(lp86
S'20'
p87
aS'Open'
p88
asS'cmdGet'
p89
(lp90
S'4'
p91
aS'Used internally. Do not use.'
p92
asS'cmdErr'
p93
(lp94
S'12'
p95
aS'Used internally. Do not use.'
p96
asS'cmdLoop'
p97
(lp98
S'9'
p99
aS'Start the serial realtime control loop. Not yet implemented.'
p100
as.